target datalayout = "e-m:e-p270:32:32-p271:32:32-p272:64:64-i64:64-i128:128-f80:128-n8:16:32:64-S128"
target triple = "x86_64-pc-linux-gnu"

%class.V3Parse = type { ptr }

@_ZN10V3ParseImpD1Ev = dso_local unnamed_addr alias void (ptr), ptr @_ZN10V3ParseImpD2Ev

; Function Attrs: mustprogress nounwind uwtable
define dso_local void @_ZN7V3ParseD2Ev(ptr noundef nonnull align 8 dereferenceable(8) %0) unnamed_addr #4 align 2 {
  %2 = alloca ptr, align 8
  store ptr %0, ptr %2, align 8, !tbaa !305
  %3 = load ptr, ptr %2, align 8
  br label %4

4:                                                ; preds = %1
  br label %5

5:                                                ; preds = %4
  %6 = getelementptr inbounds nuw %class.V3Parse, ptr %3, i32 0, i32 0
  %7 = load ptr, ptr %6, align 8, !tbaa !308
  %8 = icmp eq ptr %7, null
  br i1 %8, label %10, label %9

9:                                                ; preds = %5
  call void @_ZN10V3ParseImpD1Ev(ptr noundef nonnull align 8 dereferenceable(528) %7) #3
  call void @_ZdlPvm(ptr noundef %7, i64 noundef 528) #19
  br label %10

10:                                               ; preds = %9, %5
  br label %11

11:                                               ; preds = %10
  br label %12

12:                                               ; preds = %11
  br label %13

13:                                               ; preds = %12
  %14 = getelementptr inbounds nuw %class.V3Parse, ptr %3, i32 0, i32 0
  store ptr null, ptr %14, align 8, !tbaa !308
  br label %15

15:                                               ; preds = %13
  br label %16

16:                                               ; preds = %15
  br label %17

17:                                               ; preds = %16
  br label %18

18:                                               ; preds = %17
  ret void
}