; Function Attrs: mustprogress nounwind uwtable
define dso_local void @_ZN7V3ParseD2Ev(ptr noundef nonnull align 8 captures(none) dereferenceable(8) %0) unnamed_addr #3 align 2 {
  %2 = load ptr, ptr %0, align 8, !tbaa !515
  %3 = icmp eq ptr %2, null
  br i1 %3, label %5, label %4

4:                                                ; preds = %1
  tail call void @_ZN10V3ParseImpD2Ev(ptr noundef nonnull align 8 dereferenceable(528) %2) #26
  tail call void @_ZdlPvm(ptr noundef nonnull %2, i64 noundef 528) #25
  br label %5

5:                                                ; preds = %1, %4
  store ptr null, ptr %0, align 8, !tbaa !515
  ret void
}